target datalayout = "e-m:e-p270:32:32-p271:32:32-p272:64:64-i64:64-i128:128-f80:128-n8:16:32:64-S128"
target triple = "x86_64-pc-linux-gnu"

%struct.lua_TValue = type { %union.Value, [1 x i32], i32 }
%union.Value = type { ptr }
%struct.lua_State = type { i8, i8, i8, i8, i8, i8, i8, ptr, ptr, ptr, ptr, ptr, ptr, ptr, ptr, i32, i32, i16, i16, i32, ptr, ptr, ptr, ptr, ptr }

; Function Attrs: mustprogress uwtable
define internal noundef ptr @_ZL9callTMresP9lua_StateP10lua_TValuePKS1_S4_S4_(ptr noundef %0, ptr noundef %1, ptr noundef %2, ptr noundef %3, ptr noundef %4) #0 {
  %6 = alloca ptr, align 8
  %7 = alloca ptr, align 8
  %8 = alloca ptr, align 8
  %9 = alloca ptr, align 8
  %10 = alloca ptr, align 8
  %11 = alloca i64, align 8
  %12 = alloca ptr, align 8
  %13 = alloca ptr, align 8
  %14 = alloca ptr, align 8
  %15 = alloca ptr, align 8
  %16 = alloca ptr, align 8
  %17 = alloca ptr, align 8
  %18 = alloca ptr, align 8
  %19 = alloca ptr, align 8
  store ptr %0, ptr %6, align 8, !tbaa !15
  store ptr %1, ptr %7, align 8, !tbaa !4
  store ptr %2, ptr %8, align 8, !tbaa !4
  store ptr %3, ptr %9, align 8, !tbaa !4
  store ptr %4, ptr %10, align 8, !tbaa !4
  call void @llvm.lifetime.start.p0(i64 8, ptr %11) #11
  %20 = load ptr, ptr %7, align 8, !tbaa !4
  %21 = load ptr, ptr %6, align 8, !tbaa !15
  %22 = getelementptr inbounds nuw %struct.lua_State, ptr %21, i32 0, i32 12
  %23 = load ptr, ptr %22, align 8, !tbaa !41
  %24 = ptrtoint ptr %20 to i64
  %25 = ptrtoint ptr %23 to i64
  %26 = sub i64 %24, %25
  store i64 %26, ptr %11, align 8, !tbaa !42
  call void @llvm.lifetime.start.p0(i64 8, ptr %12) #11
  %27 = load ptr, ptr %8, align 8, !tbaa !4
  store ptr %27, ptr %12, align 8, !tbaa !4
  call void @llvm.lifetime.start.p0(i64 8, ptr %13) #11
  %28 = load ptr, ptr %6, align 8, !tbaa !15
  %29 = getelementptr inbounds nuw %struct.lua_State, ptr %28, i32 0, i32 7
  %30 = load ptr, ptr %29, align 8, !tbaa !44
  store ptr %30, ptr %13, align 8, !tbaa !4
  %31 = load ptr, ptr %12, align 8, !tbaa !4
  %32 = load ptr, ptr %13, align 8, !tbaa !4
  call void @llvm.memcpy.p0.p0.i64(ptr align 8 %32, ptr align 8 %31, i64 16, i1 false), !tbaa.struct !38
  call void @llvm.lifetime.end.p0(i64 8, ptr %13) #11
  call void @llvm.lifetime.end.p0(i64 8, ptr %12) #11
  call void @llvm.lifetime.start.p0(i64 8, ptr %14) #11
  %33 = load ptr, ptr %9, align 8, !tbaa !4
  store ptr %33, ptr %14, align 8, !tbaa !4
  call void @llvm.lifetime.start.p0(i64 8, ptr %15) #11
  %34 = load ptr, ptr %6, align 8, !tbaa !15
  %35 = getelementptr inbounds nuw %struct.lua_State, ptr %34, i32 0, i32 7
  %36 = load ptr, ptr %35, align 8, !tbaa !44
  %37 = getelementptr inbounds %struct.lua_TValue, ptr %36, i64 1
  store ptr %37, ptr %15, align 8, !tbaa !4
  %38 = load ptr, ptr %14, align 8, !tbaa !4
  %39 = load ptr, ptr %15, align 8, !tbaa !4
  call void @llvm.memcpy.p0.p0.i64(ptr align 8 %39, ptr align 8 %38, i64 16, i1 false), !tbaa.struct !38
  call void @llvm.lifetime.end.p0(i64 8, ptr %15) #11
  call void @llvm.lifetime.end.p0(i64 8, ptr %14) #11
  call void @llvm.lifetime.start.p0(i64 8, ptr %16) #11
  %40 = load ptr, ptr %10, align 8, !tbaa !4
  store ptr %40, ptr %16, align 8, !tbaa !4
  call void @llvm.lifetime.start.p0(i64 8, ptr %17) #11
  %41 = load ptr, ptr %6, align 8, !tbaa !15
  %42 = getelementptr inbounds nuw %struct.lua_State, ptr %41, i32 0, i32 7
  %43 = load ptr, ptr %42, align 8, !tbaa !44
  %44 = getelementptr inbounds %struct.lua_TValue, ptr %43, i64 2
  store ptr %44, ptr %17, align 8, !tbaa !4
  %45 = load ptr, ptr %16, align 8, !tbaa !4
  %46 = load ptr, ptr %17, align 8, !tbaa !4
  call void @llvm.memcpy.p0.p0.i64(ptr align 8 %46, ptr align 8 %45, i64 16, i1 false), !tbaa.struct !38
  call void @llvm.lifetime.end.p0(i64 8, ptr %17) #11
  call void @llvm.lifetime.end.p0(i64 8, ptr %16) #11
  %47 = load ptr, ptr %6, align 8, !tbaa !15
  %48 = getelementptr inbounds nuw %struct.lua_State, ptr %47, i32 0, i32 11
  %49 = load ptr, ptr %48, align 8, !tbaa !45
  %50 = load ptr, ptr %6, align 8, !tbaa !15
  %51 = getelementptr inbounds nuw %struct.lua_State, ptr %50, i32 0, i32 7
  %52 = load ptr, ptr %51, align 8, !tbaa !44
  %53 = ptrtoint ptr %49 to i64
  %54 = ptrtoint ptr %52 to i64
  %55 = sub i64 %53, %54
  %56 = icmp sle i64 %55, 48
  br i1 %56, label %57, label %59

57:                                               ; preds = %5
  %58 = load ptr, ptr %6, align 8, !tbaa !15
  call void @_Z14luaD_growstackP9lua_Statei(ptr noundef %58, i32 noundef 3)
  br label %60

59:                                               ; preds = %5
  br label %60

60:                                               ; preds = %59, %57
  %61 = load ptr, ptr %6, align 8, !tbaa !15
  %62 = getelementptr inbounds nuw %struct.lua_State, ptr %61, i32 0, i32 7
  %63 = load ptr, ptr %62, align 8, !tbaa !44
  %64 = getelementptr inbounds %struct.lua_TValue, ptr %63, i64 3
  store ptr %64, ptr %62, align 8, !tbaa !44
  %65 = load ptr, ptr %6, align 8, !tbaa !15
  %66 = load ptr, ptr %6, align 8, !tbaa !15
  %67 = getelementptr inbounds nuw %struct.lua_State, ptr %66, i32 0, i32 7
  %68 = load ptr, ptr %67, align 8, !tbaa !44
  %69 = getelementptr inbounds %struct.lua_TValue, ptr %68, i64 -3
  call void @_Z9luaD_callP9lua_StateP10lua_TValuei(ptr noundef %65, ptr noundef %69, i32 noundef 1)
  %70 = load ptr, ptr %6, align 8, !tbaa !15
  %71 = getelementptr inbounds nuw %struct.lua_State, ptr %70, i32 0, i32 12
  %72 = load ptr, ptr %71, align 8, !tbaa !41
  %73 = load i64, ptr %11, align 8, !tbaa !42
  %74 = getelementptr inbounds i8, ptr %72, i64 %73
  store ptr %74, ptr %7, align 8, !tbaa !4
  %75 = load ptr, ptr %6, align 8, !tbaa !15
  %76 = getelementptr inbounds nuw %struct.lua_State, ptr %75, i32 0, i32 7
  %77 = load ptr, ptr %76, align 8, !tbaa !44
  %78 = getelementptr inbounds %struct.lua_TValue, ptr %77, i32 -1
  store ptr %78, ptr %76, align 8, !tbaa !44
  call void @llvm.lifetime.start.p0(i64 8, ptr %18) #11
  %79 = load ptr, ptr %6, align 8, !tbaa !15
  %80 = getelementptr inbounds nuw %struct.lua_State, ptr %79, i32 0, i32 7
  %81 = load ptr, ptr %80, align 8, !tbaa !44
  store ptr %81, ptr %18, align 8, !tbaa !4
  call void @llvm.lifetime.start.p0(i64 8, ptr %19) #11
  %82 = load ptr, ptr %7, align 8, !tbaa !4
  store ptr %82, ptr %19, align 8, !tbaa !4
  %83 = load ptr, ptr %18, align 8, !tbaa !4
  %84 = load ptr, ptr %19, align 8, !tbaa !4
  call void @llvm.memcpy.p0.p0.i64(ptr align 8 %84, ptr align 8 %83, i64 16, i1 false), !tbaa.struct !38
  call void @llvm.lifetime.end.p0(i64 8, ptr %19) #11
  call void @llvm.lifetime.end.p0(i64 8, ptr %18) #11
  %85 = load ptr, ptr %7, align 8, !tbaa !4
  call void @llvm.lifetime.end.p0(i64 8, ptr %11) #11
  ret ptr %85
}

; Function Attrs: mustprogress uwtable
define internal noundef i32 @_ZL12call_orderTMP9lua_StatePK10lua_TValueS3_3TMSb(ptr noundef %0, ptr noundef %1, ptr noundef %2, i32 noundef %3, i1 noundef zeroext %4) #0 {
  %6 = alloca i32, align 4
  %7 = alloca ptr, align 8
  %8 = alloca ptr, align 8
  %9 = alloca ptr, align 8
  %10 = alloca i32, align 4
  %11 = alloca i8, align 1
  %12 = alloca ptr, align 8
  %13 = alloca ptr, align 8
  %14 = alloca i32, align 4
  store ptr %0, ptr %7, align 8, !tbaa !15
  store ptr %1, ptr %8, align 8, !tbaa !4
  store ptr %2, ptr %9, align 8, !tbaa !4
  store i32 %3, ptr %10, align 4, !tbaa !50
  %15 = zext i1 %4 to i8
  store i8 %15, ptr %11, align 1, !tbaa !52
  call void @llvm.lifetime.start.p0(i64 8, ptr %12) #11
  %16 = load ptr, ptr %7, align 8, !tbaa !15
  %17 = load ptr, ptr %8, align 8, !tbaa !4
  %18 = load i32, ptr %10, align 4, !tbaa !50
  %19 = call noundef ptr @_Z15luaT_gettmbyobjP9lua_StatePK10lua_TValue3TMS(ptr noundef %16, ptr noundef %17, i32 noundef %18)
  store ptr %19, ptr %12, align 8, !tbaa !4
  call void @llvm.lifetime.start.p0(i64 8, ptr %13) #11
  %20 = load ptr, ptr %12, align 8, !tbaa !4
  %21 = getelementptr inbounds nuw %struct.lua_TValue, ptr %20, i32 0, i32 2
  %22 = load i32, ptr %21, align 4, !tbaa !9
  %23 = icmp eq i32 %22, 0
  br i1 %23, label %24, label %33

24:                                               ; preds = %5
  %25 = load i8, ptr %11, align 1, !tbaa !52, !range !53, !noundef !54
  %26 = trunc i8 %25 to i1
  br i1 %26, label %27, label %32

27:                                               ; preds = %24
  %28 = load ptr, ptr %7, align 8, !tbaa !15
  %29 = load ptr, ptr %8, align 8, !tbaa !4
  %30 = load ptr, ptr %9, align 8, !tbaa !4
  %31 = load i32, ptr %10, align 4, !tbaa !50
  call void @_Z15luaG_ordererrorP9lua_StatePK10lua_TValueS3_3TMS(ptr noundef %28, ptr noundef %29, ptr noundef %30, i32 noundef %31) #12
  unreachable

32:                                               ; preds = %24
  store i32 -1, ptr %6, align 4
  store i32 1, ptr %14, align 4
  br label %86

33:                                               ; preds = %5
  %34 = load ptr, ptr %7, align 8, !tbaa !15
  %35 = load ptr, ptr %9, align 8, !tbaa !4
  %36 = load i32, ptr %10, align 4, !tbaa !50
  %37 = call noundef ptr @_Z15luaT_gettmbyobjP9lua_StatePK10lua_TValue3TMS(ptr noundef %34, ptr noundef %35, i32 noundef %36)
  store ptr %37, ptr %13, align 8, !tbaa !4
  %38 = load ptr, ptr %12, align 8, !tbaa !4
  %39 = load ptr, ptr %13, align 8, !tbaa !4
  %40 = call noundef i32 @_Z16luaO_rawequalObjPK10lua_TValueS1_(ptr noundef %38, ptr noundef %39)
  %41 = icmp ne i32 %40, 0
  br i1 %41, label %51, label %42

42:                                               ; preds = %33
  %43 = load i8, ptr %11, align 1, !tbaa !52, !range !53, !noundef !54
  %44 = trunc i8 %43 to i1
  br i1 %44, label %45, label %50

45:                                               ; preds = %42
  %46 = load ptr, ptr %7, align 8, !tbaa !15
  %47 = load ptr, ptr %8, align 8, !tbaa !4
  %48 = load ptr, ptr %9, align 8, !tbaa !4
  %49 = load i32, ptr %10, align 4, !tbaa !50
  call void @_Z15luaG_ordererrorP9lua_StatePK10lua_TValueS3_3TMS(ptr noundef %46, ptr noundef %47, ptr noundef %48, i32 noundef %49) #12
  unreachable

50:                                               ; preds = %42
  store i32 -1, ptr %6, align 4
  store i32 1, ptr %14, align 4
  br label %86

51:                                               ; preds = %33
  %52 = load ptr, ptr %7, align 8, !tbaa !15
  %53 = load ptr, ptr %7, align 8, !tbaa !15
  %54 = getelementptr inbounds nuw %struct.lua_State, ptr %53, i32 0, i32 7
  %55 = load ptr, ptr %54, align 8, !tbaa !44
  %56 = load ptr, ptr %12, align 8, !tbaa !4
  %57 = load ptr, ptr %8, align 8, !tbaa !4
  %58 = load ptr, ptr %9, align 8, !tbaa !4
  %59 = call noundef ptr @_ZL9callTMresP9lua_StateP10lua_TValuePKS1_S4_S4_(ptr noundef %52, ptr noundef %55, ptr noundef %56, ptr noundef %57, ptr noundef %58)
  %60 = load ptr, ptr %7, align 8, !tbaa !15
  %61 = getelementptr inbounds nuw %struct.lua_State, ptr %60, i32 0, i32 7
  %62 = load ptr, ptr %61, align 8, !tbaa !44
  %63 = getelementptr inbounds nuw %struct.lua_TValue, ptr %62, i32 0, i32 2
  %64 = load i32, ptr %63, align 4, !tbaa !9
  %65 = icmp eq i32 %64, 0
  br i1 %65, label %82, label %66

66:                                               ; preds = %51
  %67 = load ptr, ptr %7, align 8, !tbaa !15
  %68 = getelementptr inbounds nuw %struct.lua_State, ptr %67, i32 0, i32 7
  %69 = load ptr, ptr %68, align 8, !tbaa !44
  %70 = getelementptr inbounds nuw %struct.lua_TValue, ptr %69, i32 0, i32 2
  %71 = load i32, ptr %70, align 4, !tbaa !9
  %72 = icmp eq i32 %71, 1
  br i1 %72, label %73, label %80

73:                                               ; preds = %66
  %74 = load ptr, ptr %7, align 8, !tbaa !15
  %75 = getelementptr inbounds nuw %struct.lua_State, ptr %74, i32 0, i32 7
  %76 = load ptr, ptr %75, align 8, !tbaa !44
  %77 = getelementptr inbounds nuw %struct.lua_TValue, ptr %76, i32 0, i32 0
  %78 = load i32, ptr %77, align 8, !tbaa !12
  %79 = icmp eq i32 %78, 0
  br label %80

80:                                               ; preds = %73, %66
  %81 = phi i1 [ false, %66 ], [ %79, %73 ]
  br label %82

82:                                               ; preds = %80, %51
  %83 = phi i1 [ true, %51 ], [ %81, %80 ]
  %84 = xor i1 %83, true
  %85 = zext i1 %84 to i32
  store i32 %85, ptr %6, align 4
  store i32 1, ptr %14, align 4
  br label %86

86:                                               ; preds = %82, %50, %32
  call void @llvm.lifetime.end.p0(i64 8, ptr %13) #11
  call void @llvm.lifetime.end.p0(i64 8, ptr %12) #11
  %87 = load i32, ptr %6, align 4
  ret i32 %87
}