; Function Attrs: mustprogress uwtable
define internal fastcc noundef range(i32 -1, 2) i32 @_ZL12call_orderTMP9lua_StatePK10lua_TValueS3_3TMSb(ptr noundef %0, ptr noundef %1, ptr noundef %2, i32 noundef range(i32 16, 18) %3, i1 noundef zeroext %4) unnamed_addr #0 {
  %6 = tail call noundef ptr @_Z15luaT_gettmbyobjP9lua_StatePK10lua_TValue3TMS(ptr noundef %0, ptr noundef %1, i32 noundef %3)
  %7 = getelementptr inbounds nuw i8, ptr %6, i64 12
  %8 = load i32, ptr %7, align 4, !tbaa !4
  %9 = icmp eq i32 %8, 0
  br i1 %9, label %10, label %12

10:                                               ; preds = %5
  br i1 %4, label %11, label %50

11:                                               ; preds = %10
  tail call void @_Z15luaG_ordererrorP9lua_StatePK10lua_TValueS3_3TMS(ptr noundef %0, ptr noundef %1, ptr noundef %2, i32 noundef %3) #12
  unreachable

12:                                               ; preds = %5
  %13 = tail call noundef ptr @_Z15luaT_gettmbyobjP9lua_StatePK10lua_TValue3TMS(ptr noundef %0, ptr noundef %2, i32 noundef %3)
  %14 = tail call noundef i32 @_Z16luaO_rawequalObjPK10lua_TValueS1_(ptr noundef nonnull %6, ptr noundef %13)
  %.not = icmp eq i32 %14, 0
  br i1 %.not, label %15, label %17

15:                                               ; preds = %12
  br i1 %4, label %16, label %50

16:                                               ; preds = %15
  tail call void @_Z15luaG_ordererrorP9lua_StatePK10lua_TValueS3_3TMS(ptr noundef %0, ptr noundef %1, ptr noundef %2, i32 noundef %3) #12
  unreachable

17:                                               ; preds = %12
  %18 = getelementptr inbounds nuw i8, ptr %0, i64 8
  %19 = load ptr, ptr %18, align 8, !tbaa !36
  %20 = getelementptr inbounds nuw i8, ptr %0, i64 48
  %21 = load ptr, ptr %20, align 8, !tbaa !35
  tail call void @llvm.memcpy.p0.p0.i64(ptr noundef nonnull align 8 dereferenceable(16) %19, ptr noundef nonnull readonly align 8 dereferenceable(16) %6, i64 16, i1 false), !tbaa.struct !33
  %22 = load ptr, ptr %18, align 8, !tbaa !36
  %23 = getelementptr inbounds nuw i8, ptr %22, i64 16
  tail call void @llvm.memcpy.p0.p0.i64(ptr noundef nonnull align 8 dereferenceable(16) %23, ptr noundef nonnull readonly align 8 dereferenceable(16) %1, i64 16, i1 false), !tbaa.struct !33
  %24 = load ptr, ptr %18, align 8, !tbaa !36
  %25 = getelementptr inbounds nuw i8, ptr %24, i64 32
  tail call void @llvm.memcpy.p0.p0.i64(ptr noundef nonnull align 8 dereferenceable(16) %25, ptr noundef nonnull readonly align 8 dereferenceable(16) %2, i64 16, i1 false), !tbaa.struct !33
  %26 = getelementptr inbounds nuw i8, ptr %0, i64 40
  %27 = load ptr, ptr %26, align 8, !tbaa !37
  %28 = load ptr, ptr %18, align 8, !tbaa !36
  %29 = ptrtoint ptr %27 to i64
  %30 = ptrtoint ptr %28 to i64
  %31 = sub i64 %29, %30
  %32 = icmp slt i64 %31, 49
  br i1 %32, label %33, label %_ZL9callTMresP9lua_StateP10lua_TValuePKS1_S4_S4_.exit

33:                                               ; preds = %17
  tail call void @_Z14luaD_growstackP9lua_Statei(ptr noundef nonnull %0, i32 noundef 3)
  %.pre.i = load ptr, ptr %18, align 8, !tbaa !36
  br label %_ZL9callTMresP9lua_StateP10lua_TValuePKS1_S4_S4_.exit

_ZL9callTMresP9lua_StateP10lua_TValuePKS1_S4_S4_.exit: ; preds = %17, %33
  %34 = phi ptr [ %28, %17 ], [ %.pre.i, %33 ]
  %35 = ptrtoint ptr %19 to i64
  %36 = ptrtoint ptr %21 to i64
  %37 = sub i64 %35, %36
  %38 = getelementptr inbounds nuw i8, ptr %34, i64 48
  store ptr %38, ptr %18, align 8, !tbaa !36
  tail call void @_Z9luaD_callP9lua_StateP10lua_TValuei(ptr noundef nonnull %0, ptr noundef %34, i32 noundef 1)
  %39 = load ptr, ptr %20, align 8, !tbaa !35
  %40 = getelementptr inbounds i8, ptr %39, i64 %37
  %41 = load ptr, ptr %18, align 8, !tbaa !36
  %42 = getelementptr inbounds i8, ptr %41, i64 -16
  store ptr %42, ptr %18, align 8, !tbaa !36
  tail call void @llvm.memcpy.p0.p0.i64(ptr noundef nonnull align 8 dereferenceable(16) %40, ptr noundef nonnull align 8 dereferenceable(16) %42, i64 16, i1 false), !tbaa.struct !33
  %43 = load ptr, ptr %18, align 8, !tbaa !36
  %44 = getelementptr inbounds nuw i8, ptr %43, i64 12
  %45 = load i32, ptr %44, align 4, !tbaa !4
  switch i32 %45, label %.fold.split [
    i32 0, label %50
    i32 1, label %46
  ]

46:                                               ; preds = %_ZL9callTMresP9lua_StateP10lua_TValuePKS1_S4_S4_.exit
  %47 = load i32, ptr %43, align 8, !tbaa !9
  %48 = icmp ne i32 %47, 0
  %49 = zext i1 %48 to i32
  br label %50

.fold.split:                                      ; preds = %_ZL9callTMresP9lua_StateP10lua_TValuePKS1_S4_S4_.exit
  br label %50

50:                                               ; preds = %46, %.fold.split, %_ZL9callTMresP9lua_StateP10lua_TValuePKS1_S4_S4_.exit, %15, %10
  %.0 = phi i32 [ -1, %10 ], [ -1, %15 ], [ %45, %_ZL9callTMresP9lua_StateP10lua_TValuePKS1_S4_S4_.exit ], [ %49, %46 ], [ 1, %.fold.split ]
  ret i32 %.0
}